; ModuleID = '5/1070.c'
source_filename = "5/1070.c"
target datalayout = "e-m:e-p270:32:32-p271:32:32-p272:64:64-i64:64-f80:128-n8:16:32:64-S128"
target triple = "x86_64-pc-linux-gnu"

@.str = private unnamed_addr constant [8 x i8] c"%lf%s%s\00", align 1
@.str.1 = private unnamed_addr constant [6 x i8] c"error\00", align 1
@.str.2 = private unnamed_addr constant [4 x i8] c"yes\00", align 1
@.str.3 = private unnamed_addr constant [3 x i8] c"no\00", align 1

; Function Attrs: noinline nounwind uwtable
define dso_local i32 @main() #0 {
  %1 = alloca i32, align 4
  %2 = alloca i32, align 4
  %3 = alloca i32, align 4
  %4 = alloca i32, align 4
  %5 = alloca i32, align 4
  %6 = alloca double, align 8
  %7 = alloca [500 x i8], align 16
  %8 = alloca [500 x i8], align 16
  store i32 0, i32* %1, align 4
  store i32 0, i32* %3, align 4
  %9 = getelementptr inbounds [500 x i8], [500 x i8]* %7, i64 0, i64 0
  %10 = getelementptr inbounds [500 x i8], [500 x i8]* %8, i64 0, i64 0
  %11 = call i32 (i8*, ...) @__isoc99_scanf(i8* getelementptr inbounds ([8 x i8], [8 x i8]* @.str, i64 0, i64 0), double* %6, i8* %9, i8* %10)
  %12 = getelementptr inbounds [500 x i8], [500 x i8]* %7, i64 0, i64 0
  %13 = call i64 @strlen(i8* %12) #3
  %14 = trunc i64 %13 to i32
  store i32 %14, i32* %4, align 4
  %15 = getelementptr inbounds [500 x i8], [500 x i8]* %8, i64 0, i64 0
  %16 = call i64 @strlen(i8* %15) #3
  %17 = trunc i64 %16 to i32
  store i32 %17, i32* %5, align 4
  %18 = load i32, i32* %4, align 4
  %19 = load i32, i32* %5, align 4
  %20 = icmp ne i32 %18, %19
  br i1 %20, label %21, label %23

21:                                               ; preds = %0
  %22 = call i32 (i8*, ...) @printf(i8* getelementptr inbounds ([6 x i8], [6 x i8]* @.str.1, i64 0, i64 0))
  br label %124

23:                                               ; preds = %0
  store i32 0, i32* %2, align 4
  br label %24

24:                                               ; preds = %103, %23
  %25 = load i32, i32* %2, align 4
  %26 = load i32, i32* %4, align 4
  %27 = icmp slt i32 %25, %26
  br i1 %27, label %28, label %106

28:                                               ; preds = %24
  %29 = load i32, i32* %2, align 4
  %30 = sext i32 %29 to i64
  %31 = getelementptr inbounds [500 x i8], [500 x i8]* %7, i64 0, i64 %30
  %32 = load i8, i8* %31, align 1
  %33 = sext i8 %32 to i32
  %34 = icmp ne i32 %33, 65
  br i1 %34, label %35, label %56

35:                                               ; preds = %28
  %36 = load i32, i32* %2, align 4
  %37 = sext i32 %36 to i64
  %38 = getelementptr inbounds [500 x i8], [500 x i8]* %7, i64 0, i64 %37
  %39 = load i8, i8* %38, align 1
  %40 = sext i8 %39 to i32
  %41 = icmp ne i32 %40, 84
  br i1 %41, label %42, label %56

42:                                               ; preds = %35
  %43 = load i32, i32* %2, align 4
  %44 = sext i32 %43 to i64
  %45 = getelementptr inbounds [500 x i8], [500 x i8]* %7, i64 0, i64 %44
  %46 = load i8, i8* %45, align 1
  %47 = sext i8 %46 to i32
  %48 = icmp ne i32 %47, 71
  br i1 %48, label %49, label %56

49:                                               ; preds = %42
  %50 = load i32, i32* %2, align 4
  %51 = sext i32 %50 to i64
  %52 = getelementptr inbounds [500 x i8], [500 x i8]* %7, i64 0, i64 %51
  %53 = load i8, i8* %52, align 1
  %54 = sext i8 %53 to i32
  %55 = icmp ne i32 %54, 67
  br i1 %55, label %84, label %56

56:                                               ; preds = %49, %42, %35, %28
  %57 = load i32, i32* %2, align 4
  %58 = sext i32 %57 to i64
  %59 = getelementptr inbounds [500 x i8], [500 x i8]* %8, i64 0, i64 %58
  %60 = load i8, i8* %59, align 1
  %61 = sext i8 %60 to i32
  %62 = icmp ne i32 %61, 65
  br i1 %62, label %63, label %86

63:                                               ; preds = %56
  %64 = load i32, i32* %2, align 4
  %65 = sext i32 %64 to i64
  %66 = getelementptr inbounds [500 x i8], [500 x i8]* %8, i64 0, i64 %65
  %67 = load i8, i8* %66, align 1
  %68 = sext i8 %67 to i32
  %69 = icmp ne i32 %68, 84
  br i1 %69, label %70, label %86

70:                                               ; preds = %63
  %71 = load i32, i32* %2, align 4
  %72 = sext i32 %71 to i64
  %73 = getelementptr inbounds [500 x i8], [500 x i8]* %8, i64 0, i64 %72
  %74 = load i8, i8* %73, align 1
  %75 = sext i8 %74 to i32
  %76 = icmp ne i32 %75, 71
  br i1 %76, label %77, label %86

77:                                               ; preds = %70
  %78 = load i32, i32* %2, align 4
  %79 = sext i32 %78 to i64
  %80 = getelementptr inbounds [500 x i8], [500 x i8]* %8, i64 0, i64 %79
  %81 = load i8, i8* %80, align 1
  %82 = sext i8 %81 to i32
  %83 = icmp ne i32 %82, 67
  br i1 %83, label %84, label %86

84:                                               ; preds = %77, %49
  %85 = call i32 (i8*, ...) @printf(i8* getelementptr inbounds ([6 x i8], [6 x i8]* @.str.1, i64 0, i64 0))
  store i32 -1, i32* %3, align 4
  br label %106

86:                                               ; preds = %77, %70, %63, %56
  %87 = load i32, i32* %2, align 4
  %88 = sext i32 %87 to i64
  %89 = getelementptr inbounds [500 x i8], [500 x i8]* %7, i64 0, i64 %88
  %90 = load i8, i8* %89, align 1
  %91 = sext i8 %90 to i32
  %92 = load i32, i32* %2, align 4
  %93 = sext i32 %92 to i64
  %94 = getelementptr inbounds [500 x i8], [500 x i8]* %8, i64 0, i64 %93
  %95 = load i8, i8* %94, align 1
  %96 = sext i8 %95 to i32
  %97 = icmp eq i32 %91, %96
  br i1 %97, label %98, label %101

98:                                               ; preds = %86
  %99 = load i32, i32* %3, align 4
  %100 = add nsw i32 %99, 1
  store i32 %100, i32* %3, align 4
  br label %101

101:                                              ; preds = %98, %86
  br label %102

102:                                              ; preds = %101
  br label %103

103:                                              ; preds = %102
  %104 = load i32, i32* %2, align 4
  %105 = add nsw i32 %104, 1
  store i32 %105, i32* %2, align 4
  br label %24

106:                                              ; preds = %84, %24
  %107 = load i32, i32* %3, align 4
  %108 = icmp sge i32 %107, 0
  br i1 %108, label %109, label %123

109:                                              ; preds = %106
  %110 = load i32, i32* %3, align 4
  %111 = sitofp i32 %110 to double
  %112 = fmul double 1.000000e+00, %111
  %113 = load i32, i32* %4, align 4
  %114 = sitofp i32 %113 to double
  %115 = fdiv double %112, %114
  %116 = load double, double* %6, align 8
  %117 = fcmp ogt double %115, %116
  br i1 %117, label %118, label %120

118:                                              ; preds = %109
  %119 = call i32 (i8*, ...) @printf(i8* getelementptr inbounds ([4 x i8], [4 x i8]* @.str.2, i64 0, i64 0))
  br label %122

120:                                              ; preds = %109
  %121 = call i32 (i8*, ...) @printf(i8* getelementptr inbounds ([3 x i8], [3 x i8]* @.str.3, i64 0, i64 0))
  br label %122

122:                                              ; preds = %120, %118
  br label %123

123:                                              ; preds = %122, %106
  br label %124

124:                                              ; preds = %123, %21
  ret i32 0
}

declare dso_local i32 @__isoc99_scanf(i8*, ...) #1

; Function Attrs: nounwind readonly
declare dso_local i64 @strlen(i8*) #2

declare dso_local i32 @printf(i8*, ...) #1


!llvm.module.flags = !{!0}
!llvm.ident = !{!1}

!0 = !{i32 1, !"wchar_size", i32 4}
!1 = !{!"clang version 10.0.0-4ubuntu1 "}
